target datalayout = "e-m:e-p270:32:32-p271:32:32-p272:64:64-i64:64-i128:128-f80:128-n8:16:32:64-S128"
target triple = "x86_64-unknown-linux-gnu"

%"class.std::set.0" = type { %"class.std::_Rb_tree.1" }
%"class.std::_Rb_tree.1" = type { %"struct.std::_Rb_tree<QuantLib::Observer *, QuantLib::Observer *, std::_Identity<QuantLib::Observer *>, std::less<QuantLib::Observer *>>::_Rb_tree_impl" }
%"struct.std::_Rb_tree<QuantLib::Observer *, QuantLib::Observer *, std::_Identity<QuantLib::Observer *>, std::less<QuantLib::Observer *>>::_Rb_tree_impl" = type { [8 x i8], %"struct.std::_Rb_tree_header" }
%"struct.std::_Rb_tree_header" = type { %"struct.std::_Rb_tree_node_base", i64 }
%"struct.std::_Rb_tree_node_base" = type { i32, ptr, ptr, ptr }
%"class.std::set" = type { %"class.std::_Rb_tree" }
%"class.std::_Rb_tree" = type { %"struct.std::_Rb_tree<boost::shared_ptr<QuantLib::Observable>, boost::shared_ptr<QuantLib::Observable>, std::_Identity<boost::shared_ptr<QuantLib::Observable>>, std::less<boost::shared_ptr<QuantLib::Observable>>>::_Rb_tree_impl" }
%"struct.std::_Rb_tree<boost::shared_ptr<QuantLib::Observable>, boost::shared_ptr<QuantLib::Observable>, std::_Identity<boost::shared_ptr<QuantLib::Observable>>, std::less<boost::shared_ptr<QuantLib::Observable>>>::_Rb_tree_impl" = type { [8 x i8], %"struct.std::_Rb_tree_header" }
%"class.boost::detail::shared_count" = type { ptr }
%"class.QuantLib::Observable" = type { ptr, %"class.std::set.0" }
%"class.QuantLib::Observer" = type { ptr, %"class.std::set" }
%"class.boost::shared_ptr.40" = type { ptr, %"class.boost::detail::shared_count" }
%"class.QuantLib::GeneralizedBlackScholesProcess" = type <{ %"class.QuantLib::StochasticProcess1D", %"class.QuantLib::Handle", %"class.QuantLib::Handle.33", %"class.QuantLib::Handle.33", %"class.QuantLib::Handle.35", %"class.QuantLib::Handle.37", i8, i8, [6 x i8], %"class.QuantLib::RelinkableHandle", i8, i8, [6 x i8] }>
%"class.QuantLib::StochasticProcess1D" = type { %"class.QuantLib::StochasticProcess", %"class.boost::shared_ptr.40" }
%"class.QuantLib::StochasticProcess" = type { %"class.QuantLib::Observer", %"class.QuantLib::Observable", %"class.boost::shared_ptr.39" }
%"class.boost::shared_ptr.39" = type { ptr, %"class.boost::detail::shared_count" }
%"class.QuantLib::Handle" = type { %"class.boost::shared_ptr.15" }
%"class.boost::shared_ptr.15" = type { ptr, %"class.boost::detail::shared_count" }
%"class.QuantLib::Handle.33" = type { %"class.boost::shared_ptr.34" }
%"class.boost::shared_ptr.34" = type { ptr, %"class.boost::detail::shared_count" }
%"class.QuantLib::Handle.35" = type { %"class.boost::shared_ptr.36" }
%"class.boost::shared_ptr.36" = type { ptr, %"class.boost::detail::shared_count" }
%"class.QuantLib::Handle.37" = type { %"class.boost::shared_ptr.38" }
%"class.boost::shared_ptr.38" = type { ptr, %"class.boost::detail::shared_count" }
%"class.QuantLib::RelinkableHandle" = type { %"class.QuantLib::Handle.37" }
%"class.boost::shared_ptr.45" = type { ptr, %"class.boost::detail::shared_count" }

@.str.9 = private unnamed_addr constant [8 x i8] c"px != 0\00", align 1
@.str.10 = private unnamed_addr constant [102 x i8] c"generated/home/dtcxzyw/WorkSpace/SDK/vcpkg/installed/x64-linux/include/boost/smart_ptr/shared_ptr.hpp\00", align 1
@__PRETTY_FUNCTION__._ZNK5boost10shared_ptrIN8QuantLib21BlackVolTermStructureEEptEv = private unnamed_addr constant [159 x i8] c"typename boost::detail::sp_member_access<T>::type boost::shared_ptr<QuantLib::BlackVolTermStructure>::operator->() const [T = QuantLib::BlackVolTermStructure]\00", align 1

; Function Attrs: mustprogress uwtable
define linkonce_odr noundef ptr @_ZNK5boost10shared_ptrIN8QuantLib19StochasticProcess1D14discretizationEEptEv(ptr noundef nonnull align 8 dereferenceable(16) %this) #2 comdat align 2 {
entry:
  %this.addr = alloca ptr, align 8
  store ptr %this, ptr %this.addr, align 8, !tbaa !3
  %this1 = load ptr, ptr %this.addr, align 8
  %px = getelementptr inbounds nuw %"class.boost::shared_ptr.40", ptr %this1, i32 0, i32 0
  %0 = load ptr, ptr %px, align 8, !tbaa !66
  %cmp = icmp ne ptr %0, null
  %lnot = xor i1 %cmp, true
  %lnot2 = xor i1 %lnot, true
  %conv = zext i1 %lnot2 to i64
  %expval = call i64 @llvm.expect.i64(i64 %conv, i64 1)
  %tobool = icmp ne i64 %expval, 0
  br i1 %tobool, label %cond.true, label %cond.false

cond.true:                                        ; preds = %entry
  br label %cond.end

cond.false:                                       ; preds = %entry
  call void @_ZN5boost16assertion_failedEPKcS1_S1_l(ptr noundef @.str.9, ptr noundef @__PRETTY_FUNCTION__._ZNK5boost10shared_ptrIN8QuantLib19StochasticProcess1D14discretizationEEptEv, ptr noundef @.str.10, i64 noundef 784)
  br label %cond.end

cond.end:                                         ; preds = %cond.false, %cond.true
  %px3 = getelementptr inbounds nuw %"class.boost::shared_ptr.40", ptr %this1, i32 0, i32 0
  %1 = load ptr, ptr %px3, align 8, !tbaa !66
  ret ptr %1
}

; Function Attrs: inlinehint mustprogress uwtable
define linkonce_odr noundef double @_ZNK8QuantLib21BlackVolTermStructure13blackVarianceEddb(ptr noundef nonnull align 8 dereferenceable(68) %this, double noundef %t, double noundef %strike, i1 noundef zeroext %extrapolate) #4 comdat align 2 {
entry:
  %this.addr = alloca ptr, align 8
  %t.addr = alloca double, align 8
  %strike.addr = alloca double, align 8
  %extrapolate.addr = alloca i8, align 1
  store ptr %this, ptr %this.addr, align 8, !tbaa !3
  store double %t, ptr %t.addr, align 8, !tbaa !72
  store double %strike, ptr %strike.addr, align 8, !tbaa !72
  %storedv = zext i1 %extrapolate to i8
  store i8 %storedv, ptr %extrapolate.addr, align 1, !tbaa !67
  %this1 = load ptr, ptr %this.addr, align 8
  %0 = load double, ptr %t.addr, align 8, !tbaa !72
  %1 = load i8, ptr %extrapolate.addr, align 1, !tbaa !67, !range !68, !noundef !69
  %loadedv = trunc i8 %1 to i1
  call void @_ZNK8QuantLib13TermStructure10checkRangeEdb(ptr noundef nonnull align 8 dereferenceable(64) %this1, double noundef %0, i1 noundef zeroext %loadedv)
  %2 = load double, ptr %strike.addr, align 8, !tbaa !72
  %3 = load i8, ptr %extrapolate.addr, align 1, !tbaa !67, !range !68, !noundef !69
  %loadedv2 = trunc i8 %3 to i1
  call void @_ZNK8QuantLib23VolatilityTermStructure11checkStrikeEdb(ptr noundef nonnull align 8 dereferenceable(68) %this1, double noundef %2, i1 noundef zeroext %loadedv2)
  %4 = load double, ptr %t.addr, align 8, !tbaa !72
  %5 = load double, ptr %strike.addr, align 8, !tbaa !72
  %vtable = load ptr, ptr %this1, align 8, !tbaa !25
  %vfn = getelementptr inbounds ptr, ptr %vtable, i64 13
  %6 = load ptr, ptr %vfn, align 8
  %call = call noundef double %6(ptr noundef nonnull align 8 dereferenceable(68) %this1, double noundef %4, double noundef %5)
  ret double %call
}

; Function Attrs: mustprogress uwtable
define linkonce_odr noundef ptr @_ZNK5boost10shared_ptrIN8QuantLib21BlackVolTermStructureEEptEv(ptr noundef nonnull align 8 dereferenceable(16) %this) #2 comdat align 2 {
entry:
  %this.addr = alloca ptr, align 8
  store ptr %this, ptr %this.addr, align 8, !tbaa !3
  %this1 = load ptr, ptr %this.addr, align 8
  %px = getelementptr inbounds nuw %"class.boost::shared_ptr.45", ptr %this1, i32 0, i32 0
  %0 = load ptr, ptr %px, align 8, !tbaa !81
  %cmp = icmp ne ptr %0, null
  %lnot = xor i1 %cmp, true
  %lnot2 = xor i1 %lnot, true
  %conv = zext i1 %lnot2 to i64
  %expval = call i64 @llvm.expect.i64(i64 %conv, i64 1)
  %tobool = icmp ne i64 %expval, 0
  br i1 %tobool, label %cond.true, label %cond.false

cond.true:                                        ; preds = %entry
  br label %cond.end

cond.false:                                       ; preds = %entry
  call void @_ZN5boost16assertion_failedEPKcS1_S1_l(ptr noundef @.str.9, ptr noundef @__PRETTY_FUNCTION__._ZNK5boost10shared_ptrIN8QuantLib21BlackVolTermStructureEEptEv, ptr noundef @.str.10, i64 noundef 784)
  br label %cond.end

cond.end:                                         ; preds = %cond.false, %cond.true
  %px3 = getelementptr inbounds nuw %"class.boost::shared_ptr.45", ptr %this1, i32 0, i32 0
  %1 = load ptr, ptr %px3, align 8, !tbaa !81
  ret ptr %1
}

; Function Attrs: mustprogress uwtable
define noundef double @_ZNK8QuantLib30GeneralizedBlackScholesProcess8varianceEddd(ptr noundef nonnull align 8 dereferenceable(250) %this, double noundef %t0, double noundef %x0, double noundef %dt) unnamed_addr #2 align 2 {
entry:
  %retval = alloca double, align 8
  %this.addr = alloca ptr, align 8
  %t0.addr = alloca double, align 8
  %x0.addr = alloca double, align 8
  %dt.addr = alloca double, align 8
  store ptr %this, ptr %this.addr, align 8, !tbaa !3
  store double %t0, ptr %t0.addr, align 8, !tbaa !72
  store double %x0, ptr %x0.addr, align 8, !tbaa !72
  store double %dt, ptr %dt.addr, align 8, !tbaa !72
  %this1 = load ptr, ptr %this.addr, align 8
  %call = call noundef nonnull align 8 dereferenceable(16) ptr @_ZNK8QuantLib30GeneralizedBlackScholesProcess15localVolatilityEv(ptr noundef nonnull align 8 dereferenceable(250) %this1)
  %isStrikeIndependent_ = getelementptr inbounds nuw %"class.QuantLib::GeneralizedBlackScholesProcess", ptr %this1, i32 0, i32 11
  %0 = load i8, ptr %isStrikeIndependent_, align 1, !tbaa !63, !range !68, !noundef !69
  %loadedv = trunc i8 %0 to i1
  br i1 %loadedv, label %land.lhs.true, label %if.else

land.lhs.true:                                    ; preds = %entry
  %forceDiscretization_ = getelementptr inbounds nuw %"class.QuantLib::GeneralizedBlackScholesProcess", ptr %this1, i32 0, i32 6
  %1 = load i8, ptr %forceDiscretization_, align 8, !tbaa !31, !range !68, !noundef !69
  %loadedv2 = trunc i8 %1 to i1
  br i1 %loadedv2, label %if.else, label %if.then

if.then:                                          ; preds = %land.lhs.true
  %blackVolatility_ = getelementptr inbounds nuw %"class.QuantLib::GeneralizedBlackScholesProcess", ptr %this1, i32 0, i32 4
  %call3 = call noundef nonnull align 8 dereferenceable(16) ptr @_ZNK8QuantLib6HandleINS_21BlackVolTermStructureEEptEv(ptr noundef nonnull align 8 dereferenceable(16) %blackVolatility_)
  %call4 = call noundef ptr @_ZNK5boost10shared_ptrIN8QuantLib21BlackVolTermStructureEEptEv(ptr noundef nonnull align 8 dereferenceable(16) %call3)
  %2 = load double, ptr %t0.addr, align 8, !tbaa !72
  %3 = load double, ptr %dt.addr, align 8, !tbaa !72
  %add = fadd double %2, %3
  %call5 = call noundef double @_ZNK8QuantLib21BlackVolTermStructure13blackVarianceEddb(ptr noundef nonnull align 8 dereferenceable(68) %call4, double noundef %add, double noundef 1.000000e-02, i1 noundef zeroext false)
  %blackVolatility_6 = getelementptr inbounds nuw %"class.QuantLib::GeneralizedBlackScholesProcess", ptr %this1, i32 0, i32 4
  %call7 = call noundef nonnull align 8 dereferenceable(16) ptr @_ZNK8QuantLib6HandleINS_21BlackVolTermStructureEEptEv(ptr noundef nonnull align 8 dereferenceable(16) %blackVolatility_6)
  %call8 = call noundef ptr @_ZNK5boost10shared_ptrIN8QuantLib21BlackVolTermStructureEEptEv(ptr noundef nonnull align 8 dereferenceable(16) %call7)
  %4 = load double, ptr %t0.addr, align 8, !tbaa !72
  %call9 = call noundef double @_ZNK8QuantLib21BlackVolTermStructure13blackVarianceEddb(ptr noundef nonnull align 8 dereferenceable(68) %call8, double noundef %4, double noundef 1.000000e-02, i1 noundef zeroext false)
  %sub = fsub double %call5, %call9
  store double %sub, ptr %retval, align 8
  br label %return

if.else:                                          ; preds = %land.lhs.true, %entry
  %discretization_ = getelementptr inbounds nuw %"class.QuantLib::StochasticProcess1D", ptr %this1, i32 0, i32 1
  %call10 = call noundef ptr @_ZNK5boost10shared_ptrIN8QuantLib19StochasticProcess1D14discretizationEEptEv(ptr noundef nonnull align 8 dereferenceable(16) %discretization_)
  %5 = load double, ptr %t0.addr, align 8, !tbaa !72
  %6 = load double, ptr %x0.addr, align 8, !tbaa !72
  %7 = load double, ptr %dt.addr, align 8, !tbaa !72
  %vtable = load ptr, ptr %call10, align 8, !tbaa !25
  %vfn = getelementptr inbounds ptr, ptr %vtable, i64 4
  %8 = load ptr, ptr %vfn, align 8
  %call11 = call noundef double %8(ptr noundef nonnull align 8 dereferenceable(8) %call10, ptr noundef nonnull align 8 dereferenceable(144) %this1, double noundef %5, double noundef %6, double noundef %7)
  store double %call11, ptr %retval, align 8
  br label %return

return:                                           ; preds = %if.else, %if.then
  %9 = load double, ptr %retval, align 8
  ret double %9
}