; Function Attrs: mustprogress uwtable
define noundef double @_ZNK8QuantLib30GeneralizedBlackScholesProcess8varianceEddd(ptr noundef nonnull align 8 dereferenceable(250) %this, double noundef %t0, double noundef %x0, double noundef %dt) unnamed_addr #7 align 2 {
entry:
  %call = tail call noundef nonnull align 8 dereferenceable(16) ptr @_ZNK8QuantLib30GeneralizedBlackScholesProcess15localVolatilityEv(ptr noundef nonnull align 8 dereferenceable(250) %this)
  %isStrikeIndependent_ = getelementptr inbounds nuw i8, ptr %this, i64 249
  %0 = load i8, ptr %isStrikeIndependent_, align 1, !tbaa !86, !range !26, !noundef !27
  %loadedv = trunc nuw i8 %0 to i1
  br i1 %loadedv, label %land.lhs.true, label %if.else

land.lhs.true:                                    ; preds = %entry
  %forceDiscretization_ = getelementptr inbounds nuw i8, ptr %this, i64 224
  %1 = load i8, ptr %forceDiscretization_, align 8, !tbaa !67, !range !26, !noundef !27
  %loadedv2 = trunc nuw i8 %1 to i1
  br i1 %loadedv2, label %if.else, label %if.then

if.then:                                          ; preds = %land.lhs.true
  %blackVolatility_ = getelementptr inbounds nuw i8, ptr %this, i64 192
  %call3 = tail call noundef nonnull align 8 dereferenceable(16) ptr @_ZNK8QuantLib6HandleINS_21BlackVolTermStructureEEptEv(ptr noundef nonnull align 8 dereferenceable(16) %blackVolatility_)
  %2 = load ptr, ptr %call3, align 8, !tbaa !139
  %cmp.not.i = icmp eq ptr %2, null
  br i1 %cmp.not.i, label %cond.false.i, label %_ZNK5boost10shared_ptrIN8QuantLib21BlackVolTermStructureEEptEv.exit, !prof !128

cond.false.i:                                     ; preds = %if.then
  tail call void @_ZN5boost16assertion_failedEPKcS1_S1_l(ptr noundef nonnull @.str.9, ptr noundef nonnull @__PRETTY_FUNCTION__._ZNK5boost10shared_ptrIN8QuantLib21BlackVolTermStructureEEptEv, ptr noundef nonnull @.str.10, i64 noundef 784)
  %.pre.i = load ptr, ptr %call3, align 8, !tbaa !139
  br label %_ZNK5boost10shared_ptrIN8QuantLib21BlackVolTermStructureEEptEv.exit

_ZNK5boost10shared_ptrIN8QuantLib21BlackVolTermStructureEEptEv.exit: ; preds = %if.then, %cond.false.i
  %3 = phi ptr [ %2, %if.then ], [ %.pre.i, %cond.false.i ]
  %add = fadd double %t0, %dt
  tail call void @_ZNK8QuantLib13TermStructure10checkRangeEdb(ptr noundef nonnull align 8 dereferenceable(64) %3, double noundef %add, i1 noundef zeroext false)
  tail call void @_ZNK8QuantLib23VolatilityTermStructure11checkStrikeEdb(ptr noundef nonnull align 8 dereferenceable(68) %3, double noundef 1.000000e-02, i1 noundef zeroext false)
  %vtable.i = load ptr, ptr %3, align 8, !tbaa !49
  %vfn.i = getelementptr inbounds i8, ptr %vtable.i, i64 104
  %4 = load ptr, ptr %vfn.i, align 8
  %call.i = tail call noundef double %4(ptr noundef nonnull align 8 dereferenceable(68) %3, double noundef %add, double noundef 1.000000e-02)
  %call7 = tail call noundef nonnull align 8 dereferenceable(16) ptr @_ZNK8QuantLib6HandleINS_21BlackVolTermStructureEEptEv(ptr noundef nonnull align 8 dereferenceable(16) %blackVolatility_)
  %5 = load ptr, ptr %call7, align 8, !tbaa !139
  %cmp.not.i4 = icmp eq ptr %5, null
  br i1 %cmp.not.i4, label %cond.false.i5, label %_ZNK5boost10shared_ptrIN8QuantLib21BlackVolTermStructureEEptEv.exit7, !prof !128

cond.false.i5:                                    ; preds = %_ZNK5boost10shared_ptrIN8QuantLib21BlackVolTermStructureEEptEv.exit
  tail call void @_ZN5boost16assertion_failedEPKcS1_S1_l(ptr noundef nonnull @.str.9, ptr noundef nonnull @__PRETTY_FUNCTION__._ZNK5boost10shared_ptrIN8QuantLib21BlackVolTermStructureEEptEv, ptr noundef nonnull @.str.10, i64 noundef 784)
  %.pre.i6 = load ptr, ptr %call7, align 8, !tbaa !139
  br label %_ZNK5boost10shared_ptrIN8QuantLib21BlackVolTermStructureEEptEv.exit7

_ZNK5boost10shared_ptrIN8QuantLib21BlackVolTermStructureEEptEv.exit7: ; preds = %_ZNK5boost10shared_ptrIN8QuantLib21BlackVolTermStructureEEptEv.exit, %cond.false.i5
  %6 = phi ptr [ %5, %_ZNK5boost10shared_ptrIN8QuantLib21BlackVolTermStructureEEptEv.exit ], [ %.pre.i6, %cond.false.i5 ]
  tail call void @_ZNK8QuantLib13TermStructure10checkRangeEdb(ptr noundef nonnull align 8 dereferenceable(64) %6, double noundef %t0, i1 noundef zeroext false)
  tail call void @_ZNK8QuantLib23VolatilityTermStructure11checkStrikeEdb(ptr noundef nonnull align 8 dereferenceable(68) %6, double noundef 1.000000e-02, i1 noundef zeroext false)
  %vtable.i8 = load ptr, ptr %6, align 8, !tbaa !49
  %vfn.i9 = getelementptr inbounds i8, ptr %vtable.i8, i64 104
  %7 = load ptr, ptr %vfn.i9, align 8
  %call.i10 = tail call noundef double %7(ptr noundef nonnull align 8 dereferenceable(68) %6, double noundef %t0, double noundef 1.000000e-02)
  %sub = fsub double %call.i, %call.i10
  br label %return

if.else:                                          ; preds = %land.lhs.true, %entry
  %discretization_ = getelementptr inbounds nuw i8, ptr %this, i64 128
  %8 = load ptr, ptr %discretization_, align 8, !tbaa !57
  %cmp.not.i11 = icmp eq ptr %8, null
  br i1 %cmp.not.i11, label %cond.false.i12, label %_ZNK5boost10shared_ptrIN8QuantLib19StochasticProcess1D14discretizationEEptEv.exit, !prof !128

cond.false.i12:                                   ; preds = %if.else
  tail call void @_ZN5boost16assertion_failedEPKcS1_S1_l(ptr noundef nonnull @.str.9, ptr noundef nonnull @__PRETTY_FUNCTION__._ZNK5boost10shared_ptrIN8QuantLib19StochasticProcess1D14discretizationEEptEv, ptr noundef nonnull @.str.10, i64 noundef 784)
  %.pre.i13 = load ptr, ptr %discretization_, align 8, !tbaa !57
  br label %_ZNK5boost10shared_ptrIN8QuantLib19StochasticProcess1D14discretizationEEptEv.exit

_ZNK5boost10shared_ptrIN8QuantLib19StochasticProcess1D14discretizationEEptEv.exit: ; preds = %if.else, %cond.false.i12
  %9 = phi ptr [ %8, %if.else ], [ %.pre.i13, %cond.false.i12 ]
  %vtable = load ptr, ptr %9, align 8, !tbaa !49
  %vfn = getelementptr inbounds i8, ptr %vtable, i64 32
  %10 = load ptr, ptr %vfn, align 8
  %call11 = tail call noundef double %10(ptr noundef nonnull align 8 dereferenceable(8) %9, ptr noundef nonnull align 8 dereferenceable(144) %this, double noundef %t0, double noundef %x0, double noundef %dt)
  br label %return

return:                                           ; preds = %_ZNK5boost10shared_ptrIN8QuantLib19StochasticProcess1D14discretizationEEptEv.exit, %_ZNK5boost10shared_ptrIN8QuantLib21BlackVolTermStructureEEptEv.exit7
  %retval.0 = phi double [ %call11, %_ZNK5boost10shared_ptrIN8QuantLib19StochasticProcess1D14discretizationEEptEv.exit ], [ %sub, %_ZNK5boost10shared_ptrIN8QuantLib21BlackVolTermStructureEEptEv.exit7 ]
  ret double %retval.0
}